; Function Attrs: mustprogress uwtable
define void @_ZN2cv3reg8MapShiftC2ERKNS_11_InputArrayE(ptr noundef nonnull align 8 dereferenceable(24) initializes((0, 24)) %0, ptr noundef nonnull align 8 dereferenceable(24) %1) unnamed_addr #2 align 2 personality ptr @__gxx_personality_v0 {
  %3 = alloca %"class.cv::Mat", align 8
  %4 = alloca %"class.cv::_OutputArray", align 8
  store ptr getelementptr inbounds nuw inrange(-16, 56) (i8, ptr @_ZTVN2cv3reg8MapShiftE, i64 16), ptr %0, align 8, !tbaa !3
  %5 = getelementptr inbounds nuw i8, ptr %0, i64 8
  tail call void @llvm.memset.p0.i64(ptr noundef nonnull align 8 dereferenceable(16) %5, i8 0, i64 16, i1 false), !tbaa !6
  call void @llvm.lifetime.start.p0(i64 96, ptr nonnull %3) #15
  %6 = invoke noundef i32 @_ZNK2cv11_InputArray4kindEv(ptr noundef nonnull align 8 dereferenceable(24) %1)
          to label %.noexc unwind label %16

.noexc:                                           ; preds = %2
  %7 = icmp eq i32 %6, 65536
  br i1 %7, label %8, label %11

8:                                                ; preds = %.noexc
  %9 = getelementptr inbounds nuw i8, ptr %1, i64 8
  %10 = load ptr, ptr %9, align 8, !tbaa !9, !noalias !14
  invoke void @_ZN2cv3MatC1ERKS0_(ptr noundef nonnull align 8 dereferenceable(96) %3, ptr noundef nonnull align 8 dereferenceable(96) %10)
          to label %12 unwind label %16

11:                                               ; preds = %.noexc
  invoke void @_ZNK2cv11_InputArray7getMat_Ei(ptr dead_on_unwind nonnull writable sret(%"class.cv::Mat") align 8 %3, ptr noundef nonnull align 8 dereferenceable(24) %1, i32 noundef -1)
          to label %12 unwind label %16

12:                                               ; preds = %11, %8
  call void @llvm.lifetime.start.p0(i64 24, ptr nonnull %4) #15
  %13 = getelementptr inbounds nuw i8, ptr %4, i64 8
  store i32 -1040056314, ptr %4, align 8, !tbaa !17
  store ptr %5, ptr %13, align 8, !tbaa !9
  %14 = getelementptr inbounds nuw i8, ptr %4, i64 16
  store i64 8589934593, ptr %14, align 8
  invoke void @_ZNK2cv3Mat6copyToERKNS_12_OutputArrayE(ptr noundef nonnull align 8 dereferenceable(96) %3, ptr noundef nonnull align 8 dereferenceable(24) %4)
          to label %15 unwind label %18

15:                                               ; preds = %12
  call void @llvm.lifetime.end.p0(i64 24, ptr nonnull %4) #15
  call void @_ZN2cv3MatD1Ev(ptr noundef nonnull align 8 dereferenceable(96) %3) #15
  call void @llvm.lifetime.end.p0(i64 96, ptr nonnull %3) #15
  ret void

16:                                               ; preds = %11, %8, %2
  %17 = landingpad { ptr, i32 }
          cleanup
  br label %20

18:                                               ; preds = %12
  %19 = landingpad { ptr, i32 }
          cleanup
  call void @llvm.lifetime.end.p0(i64 24, ptr nonnull %4) #15
  call void @_ZN2cv3MatD1Ev(ptr noundef nonnull align 8 dereferenceable(96) %3) #15
  br label %20

20:                                               ; preds = %18, %16
  %.pn.pn = phi { ptr, i32 } [ %19, %18 ], [ %17, %16 ]
  call void @llvm.lifetime.end.p0(i64 96, ptr nonnull %3) #15
  call void @_ZN2cv3reg3MapD2Ev(ptr noundef nonnull align 8 dereferenceable(8) %0) #15
  resume { ptr, i32 } %.pn.pn
}